; Function Attrs: nounwind uwtable
define void @Ssc_ManCollectSatPattern(ptr noundef readonly captures(none) %0, ptr noundef captures(none) initializes((4, 8)) %1) local_unnamed_addr #0 {
  %3 = getelementptr inbounds nuw i8, ptr %1, i64 4
  store i32 0, ptr %3, align 4, !tbaa !40
  %4 = getelementptr inbounds nuw i8, ptr %0, i64 24
  %5 = load ptr, ptr %4, align 8, !tbaa !3
  %6 = getelementptr inbounds nuw i8, ptr %5, i64 64
  %7 = load ptr, ptr %6, align 8, !tbaa !48
  %8 = getelementptr i8, ptr %7, i64 4
  %.val16 = load i32, ptr %8, align 4, !tbaa !40
  %9 = icmp sgt i32 %.val16, 0
  br i1 %9, label %.lr.ph, label %.critedge

.lr.ph:                                           ; preds = %2
  %10 = getelementptr inbounds nuw i8, ptr %0, i64 32
  %11 = getelementptr i8, ptr %0, i64 40
  %.phi.trans.insert.i = getelementptr inbounds nuw i8, ptr %1, i64 8
  br label %12

12:                                               ; preds = %.lr.ph, %Vec_IntPush.exit
  %indvars.iv = phi i64 [ 0, %.lr.ph ], [ %indvars.iv.next, %Vec_IntPush.exit ]
  %13 = phi ptr [ %7, %.lr.ph ], [ %61, %Vec_IntPush.exit ]
  %14 = phi ptr [ %5, %.lr.ph ], [ %59, %Vec_IntPush.exit ]
  %15 = getelementptr i8, ptr %14, i64 32
  %.val11 = load ptr, ptr %15, align 8, !tbaa !49
  %.not = icmp eq ptr %.val11, null
  br i1 %.not, label %.critedge, label %16

16:                                               ; preds = %12
  %17 = getelementptr i8, ptr %13, i64 8
  %.val12.val = load ptr, ptr %17, align 8, !tbaa !43
  %18 = getelementptr inbounds nuw i32, ptr %.val12.val, i64 %indvars.iv
  %19 = load i32, ptr %18, align 4, !tbaa !47
  %20 = load ptr, ptr %10, align 8, !tbaa !56
  %.val14 = load ptr, ptr %11, align 8, !tbaa !44
  %21 = getelementptr i8, ptr %.val14, i64 8
  %.val14.val = load ptr, ptr %21, align 8, !tbaa !43
  %22 = sext i32 %19 to i64
  %23 = getelementptr inbounds i32, ptr %.val14.val, i64 %22
  %24 = load i32, ptr %23, align 4, !tbaa !47
  %25 = getelementptr i8, ptr %20, i64 328
  %.val15 = load ptr, ptr %25, align 8, !tbaa !57
  %26 = sext i32 %24 to i64
  %27 = getelementptr inbounds i32, ptr %.val15, i64 %26
  %28 = load i32, ptr %27, align 4, !tbaa !47
  %29 = icmp eq i32 %28, 1
  %30 = zext i1 %29 to i32
  %31 = load i32, ptr %3, align 4, !tbaa !40
  %32 = load i32, ptr %1, align 8, !tbaa !42
  %33 = icmp eq i32 %31, %32
  br i1 %33, label %34, label %.Vec_IntGrow.exit10_crit_edge.i

.Vec_IntGrow.exit10_crit_edge.i:                  ; preds = %16
  %.pre.i = load ptr, ptr %.phi.trans.insert.i, align 8, !tbaa !43
  br label %Vec_IntPush.exit

34:                                               ; preds = %16
  %35 = icmp slt i32 %31, 16
  br i1 %35, label %36, label %43

36:                                               ; preds = %34
  %37 = load ptr, ptr %.phi.trans.insert.i, align 8, !tbaa !43
  %.not9.i.i = icmp eq ptr %37, null
  br i1 %.not9.i.i, label %40, label %38

38:                                               ; preds = %36
  %39 = tail call dereferenceable_or_null(64) ptr @realloc(ptr noundef nonnull %37, i64 noundef 64) #10
  br label %Vec_IntGrow.exit.i

40:                                               ; preds = %36
  %41 = tail call noalias dereferenceable_or_null(64) ptr @malloc(i64 noundef 64) #9
  br label %Vec_IntGrow.exit.i

Vec_IntGrow.exit.i:                               ; preds = %40, %38
  %42 = phi ptr [ %39, %38 ], [ %41, %40 ]
  store ptr %42, ptr %.phi.trans.insert.i, align 8, !tbaa !43
  store i32 16, ptr %1, align 8, !tbaa !42
  br label %Vec_IntPush.exit

43:                                               ; preds = %34
  %44 = shl nuw nsw i32 %31, 1
  %45 = load ptr, ptr %.phi.trans.insert.i, align 8, !tbaa !43
  %.not9.i9.i = icmp eq ptr %45, null
  %46 = zext nneg i32 %44 to i64
  %47 = shl nuw nsw i64 %46, 2
  br i1 %.not9.i9.i, label %50, label %48

48:                                               ; preds = %43
  %49 = tail call ptr @realloc(ptr noundef nonnull %45, i64 noundef %47) #10
  br label %52

50:                                               ; preds = %43
  %51 = tail call noalias ptr @malloc(i64 noundef %47) #9
  br label %52

52:                                               ; preds = %50, %48
  %53 = phi ptr [ %49, %48 ], [ %51, %50 ]
  store ptr %53, ptr %.phi.trans.insert.i, align 8, !tbaa !43
  store i32 %44, ptr %1, align 8, !tbaa !42
  br label %Vec_IntPush.exit

Vec_IntPush.exit:                                 ; preds = %.Vec_IntGrow.exit10_crit_edge.i, %Vec_IntGrow.exit.i, %52
  %54 = phi ptr [ %.pre.i, %.Vec_IntGrow.exit10_crit_edge.i ], [ %53, %52 ], [ %42, %Vec_IntGrow.exit.i ]
  %55 = load i32, ptr %3, align 4, !tbaa !40
  %56 = add nsw i32 %55, 1
  store i32 %56, ptr %3, align 4, !tbaa !40
  %57 = sext i32 %55 to i64
  %58 = getelementptr inbounds i32, ptr %54, i64 %57
  store i32 %30, ptr %58, align 4, !tbaa !47
  %indvars.iv.next = add nuw nsw i64 %indvars.iv, 1
  %59 = load ptr, ptr %4, align 8, !tbaa !3
  %60 = getelementptr inbounds nuw i8, ptr %59, i64 64
  %61 = load ptr, ptr %60, align 8, !tbaa !48
  %62 = getelementptr i8, ptr %61, i64 4
  %.val = load i32, ptr %62, align 4, !tbaa !40
  %63 = sext i32 %.val to i64
  %64 = icmp slt i64 %indvars.iv.next, %63
  br i1 %64, label %12, label %.critedge, !llvm.loop !68

.critedge:                                        ; preds = %12, %Vec_IntPush.exit, %2
  ret void
}